1     0000              MODULE secp256k1_test_asm
2     0000              LINE 0, "test/secp256k1_test.asm"
0     0000              
1     0000              SECTION code_user
2     0000              
3     0000              EXTERN      G0X
4     0000              EXTERN      G255X
5     0000              EXTERN      MOD1Q
6     0000              
7     0000              EXTERN      ECGX
8     0000              EXTERN      ECGY
9     0000              
10    0000              EXTERN      MODADD
11    0000              EXTERN      MODSUB
12    0000              EXTERN      MODMUL
13    0000              EXTERN      MODCAN
14    0000              EXTERN      MODINV
15    0000              
16    0000              EXTERN      MODQADD
17    0000              EXTERN      MODSUBQ
18    0000              EXTERN      MODQMUL
19    0000              EXTERN      MODQCAN
20    0000              EXTERN      MODQINV
21    0000              
22    0000              EXTERN      ECMUL
23    0000              EXTERN      ECGMUL
24    0000              
25    0000              EXTERN      ECADD
26    0000              EXTERN      ECDOUB
27    0000              
28    0000              
29    0000              PUBLIC _main
30    0000              
31    0000              defc bdos       = 05h                       ; bdos vector
32    0000              defc conout     = 2                         ; console output bdos call
33    0000              defc condio     = 6                         ; console direct I/O call
34    0000              defc prints     = 9                         ; print string bdos call
35    0000              defc cr         = 13                        ; carriage return
36    0000              defc lf         = 10                        ; line feed
37    0000              defc esc        = 27                        ; escape
38    0000              defc eos        = '$'                       ; end of string marker
39    0000              
40    0000              _main:
41    0000  1E 2E           ld      e,'.'                           ; print a progress comfort "."
42    0002  0E 06           ld      c, condio
43    0004  CD 05 00        call    bdos
44    0007              
45    0007  C3 1F 00        JP      TMODMUL     ; 32768
46    000A  C3 70 00        JP      TMODINV     ; 32771
47    000D  C3 86 00        JP      TECDOUB     ; 32774
48    0010  C3 A8 00        JP      TECADD      ; 32777
49    0013  C3 C6 00        JP      TECMUL      ; 32780
50    0016  C3 44 00        JP      TMQMUL      ; 32783
51    0019  C3 5A 00        JP      TMQINV      ; 32786
52    001C  C3 F8 00        JP      TECGMUL     ; 32789
53    001F              ; Tests 256 bit modular multiplication
54    001F              ; In: XVALUE, YVALUE: little-endian 256 bit multiplicands, EXPECT: little-endian 256 bit expected product
55    001F              ; Out: B = 0 if test passed, length of erroneous prefix (LSB) otherwise
56    001F              TMODMUL:
57    001F  21 00 03        LD      HL,LAM
58    0022              
59    0022  D9              EXX
60    0023  E5              PUSH    HL
61    0024  21 00 04        LD      HL,XVALUE
62    0027  11 20 04        LD      DE,YVALUE
63    002A              TMMC:
64    002A  CD 00 00        CALL    MODMUL
65    002D  21 1F 03        LD      HL,LAM + 0x1F
66    0030  CD 00 00        CALL    MODCAN
67    0033              CHECKS:
68    0033  D9              EXX
69    0034  E1              POP     HL
70    0035              
71    0035  D9              EXX
72    0036  11 80 04        LD      DE,EXPECT + 0x20
73    0039  01 00 20        LD      BC,0x2000
74    003C              CHECK:
75    003C  1B              DEC     DE
76    003D  2B              DEC     HL
77    003E  1A              LD      A,(DE)
78    003F  BE              CP      (HL)
79    0040  C0              RET     NZ
80    0041  10 F9           DJNZ    CHECK
81    0043  C9              RET
82    0044              
83    0044              ; Tests 256 bit modular multiplication
84    0044              ; In: XVALUE, ZVALUE: little-endian 256 bit multiplicands, EXPECT: little-endian 256 bit expected product
85    0044              ; Out: B = 0 if test passed, length of erroneous prefix (LSB) otherwise
86    0044              TMQMUL:
87    0044  21 00 03        LD      HL,LAM
88    0047              
89    0047  D9              EXX
90    0048  E5              PUSH    HL
91    0049  21 00 04        LD      HL,XVALUE
92    004C  11 40 04        LD      DE,ZVALUE
93    004F              TMQMC:
94    004F  CD 00 00        CALL    MODQMUL
95    0052  21 1F 03        LD      HL,LAM + 0x1F
96    0055  CD 00 00        CALL    MODQCAN
97    0058  18 D9           JR      CHECKS
98    005A              
99    005A              ; Tests 256 bit modular inverse
100   005A              ; In: XVALUE: value to invert
101   005A              ; Out: BC = 0 if test passed
102   005A              TMQINV:
103   005A  21 00 04        LD      HL,XVALUE
104   005D  11 40 02        LD      DE,ECV
105   0060  CD 00 00        CALL    MODQINV
106   0063  21 00 03        LD      HL,LAM
107   0066              
108   0066  D9              EXX
109   0067  E5              PUSH    HL
110   0068  21 00 04        LD      HL,XVALUE
111   006B  11 40 02        LD      DE,ECV
112   006E  18 DF           JR      TMQMC
113   0070              
114   0070              ; Tests 256 bit modular inverse
115   0070              ; In: XVALUE: value to invert
116   0070              ; Out: BC = 0 if test passed
117   0070              TMODINV:
118   0070  21 00 04        LD      HL,XVALUE
119   0073  11 40 02        LD      DE,ECV
120   0076  CD 00 00        CALL    MODINV
121   0079  21 00 03        LD      HL,LAM
122   007C              
123   007C  D9              EXX
124   007D  E5              PUSH    HL
125   007E  21 00 04        LD      HL,XVALUE
126   0081  11 40 02        LD      DE,ECV
127   0084  18 A4           JR      TMMC
128   0086              
129   0086              ; Tests doubling of generator point on EC
130   0086              TECDOUB:
131   0086  D9              EXX
132   0087  E5              PUSH    HL
133   0088  06 FF           LD      B,255
134   008A  21 00 00        LD      HL,G0X
135   008D              TECDBL:
136   008D  C5              PUSH    BC
137   008E  E5              PUSH    HL
138   008F  CD 00 00        CALL    ECDOUB
139   0092  E1              POP     HL
140   0093  11 40 00        LD      DE,0x0040
141   0096  19              ADD     HL,DE
142   0097  E5              PUSH    HL
143   0098  EB              EX      DE,HL
144   0099  CD B8 00        CALL    CHECKP
145   009C  E1              POP     HL
146   009D  C1              POP     BC
147   009E  20 03           JR      NZ,TECDBF
148   00A0  10 EB           DJNZ    TECDBL
149   00A2  48              LD      C,B
150   00A3              TECDBF:
151   00A3  E1              POP     HL
152   00A4  C5              PUSH    BC
153   00A5              
154   00A5  D9              EXX
155   00A6  C1              POP     BC
156   00A7  C9              RET
157   00A8              
158   00A8              ; Tests point addition
159   00A8              TECADD:
160   00A8  D9              EXX
161   00A9  E5              PUSH    HL
162   00AA  21 00 00        LD      HL,ECGX
163   00AD  11 80 04        LD      DE,ECG2X
164   00B0  CD 00 00        CALL    ECADD
165   00B3  E1              POP     HL
166   00B4              
167   00B4  D9              EXX
168   00B5  11 C0 04        LD      DE,ECG3X
169   00B8              CHECKP:
170   00B8  21 00 02        LD      HL,ECX
171   00BB  01 00 40        LD      BC,0x4000
172   00BE              CHECKD:
173   00BE  1A              LD      A,(DE)
174   00BF  BE              CP      (HL)
175   00C0  C0              RET     NZ
176   00C1  13              INC     DE
177   00C2  23              INC     HL
178   00C3  10 F9           DJNZ    CHECKD
179   00C5  C9              RET
180   00C6              
181   00C6              ; Tests point multiplication
182   00C6              TECMUL:
183   00C6  D9              EXX
184   00C7  E5              PUSH    HL
185   00C8  21 00 00        LD      HL,ECGX
186   00CB  11 1F 05        LD      DE,PRIVK + 0x1F
187   00CE  CD 00 00        CALL    ECMUL
188   00D1              CHECKEC:
189   00D1  E1              POP     HL
190   00D2              
191   00D2  D9              EXX
192   00D3  11 00 00        LD      DE,ECGX
193   00D6  21 68 01        LD      HL,ECB
194   00D9  01 01 20        LD      BC,0x2001
195   00DC  CD BE 00        CALL    CHECKD
196   00DF  78              LD      A,B
197   00E0  B7              OR      A
198   00E1  C0              RET     NZ
199   00E2  CD 00 00        CALL    MODADD
200   00E5  21 A7 01        LD      HL,ECB + 0x3F
201   00E8  CD 00 00        CALL    MODCAN
202   00EB  21 88 01        LD      HL,ECB + 0x20
203   00EE  01 00 20        LD      BC,0x2000
204   00F1              CHECKQ:
205   00F1  7E              LD      A,(HL)
206   00F2  B7              OR      A
207   00F3  C0              RET     NZ
208   00F4  23              INC     HL
209   00F5  10 FA           DJNZ    CHECKQ
210   00F7  C9              RET
211   00F8              
212   00F8              ; Tests generator point multiplication
213   00F8              TECGMUL:
214   00F8  D9              EXX
215   00F9  E5              PUSH    HL
216   00FA  11 1F 05        LD      DE,PRIVK + 0x1F
217   00FD  CD 00 00        CALL    ECGMUL
218   0100  18 CF           JR      CHECKEC
219   0102              
220   0102              ;------------------------------------------------------------------------------
221   0102              ;   Print message pointed to by (DE). It will end with a '$'.
222   0102              ;   modifies AF, DE, & HL
223   0102              
224   0102              SECTION     code_user
225   0102              
226   0102              prtmesg:
227   0102  1A              ld      a,(de)      ; Get character from DE address
228   0103  FE 24           cp      '$'
229   0105  C8              ret     Z
230   0106  13              inc     de
231   0107  D5              push    de          ;otherwise, bump pointer and print it.
232   0108  5F              ld      e,a
233   0109  0E 06           ld      c, condio
234   010B  CD 05 00        call    bdos
235   010E  D1              pop     de
236   010F  18 F1           jr      prtmesg
237   0111              
238   0111              ;------------------------------------------------------------------------------
239   0111              
240   0111              SECTION     data_user
241   0000              
242   0000              PRINT_OK:
243   0000  20 20 53 45 43 50 32 35 36 4B 31 20 4F 4B 0A 24 
                                defm "  SECP256K1 OK",lf,eos
244   0010              PRINT_FAIL:
245   0010  20 53 45 43 50 32 35 36 4B 31 20 46 41 49 4C 0A 24 
                                defm " SECP256K1 FAIL",lf,eos
246   0021              
247   0021              ;------------------------------------------------------------------------------
248   0021              
249   0021              SECTION     data_user
250   0021              
251   0021  00 00 00 00 00 00 00 00 00 00 00 00 00 00 00 00 00 00 00 00 00 00 00 00 00 00 00 00 00 00 00 00 
      0041  00 00 00 00 00 00 00 00 00 00 00 00 00 00 00 00 00 00 00 00 00 00 00 00 00 00 00 00 00 00 00 00 
      0061  00 00 00 00 00 00 00 00 00 00 00 00 00 00 00 00 00 00 00 00 00 00 00 00 00 00 00 00 00 00 00 00 
      0081  00 00 00 00 00 00 00 00 00 00 00 00 00 00 00 00 00 00 00 00 00 00 00 00 00 00 00 00 00 00 00 00 
      00A1  00 00 00 00 00 00 00 00 00 00 00 00 00 00 00 00 00 00 00 00 00 00 00 00 00 00 00 00 00 00 00 00 
      00C1  00 00 00 00 00 00 00 00 00 00 00 00 00 00 00 00 00 00 00 00 00 00 00 00 00 00 00 00 00 00 00 00 
      00E1  00 00 00 00 00 00 00 00 00 00 00 00 00 00 00 00 00 00 00 00 00 00 00 00 00 00 00 00 00 00 00 
                        ALIGN       $100
252   0100              
253   0100              PUBLIC      MODINVU
254   0100              PUBLIC      MODINVV
255   0100              PUBLIC      MODINVD
256   0100              PUBLIC      MODINVA
257   0100              PUBLIC      MODINVUV
258   0100              PUBLIC      ECB
259   0100              
260   0100  00 00 00 00 00 00 00 00 00 00 00 00 00 00 00 00 00 00 00 00 00 00 00 00 00 00 00 00 00 00 00 00 
      0120  00 00 
                        MODINVU:    DEFS    0x22
261   0122  00 00 00 00 00 00 00 00 00 00 00 00 00 00 00 00 00 00 00 00 00 00 00 00 00 00 00 00 00 00 00 00 
      0142  00 00 
                        MODINVV:    DEFS    0x22
262   0144  00 00 00 00 00 00 00 00 00 00 00 00 00 00 00 00 00 00 00 00 00 00 00 00 00 00 00 00 00 00 00 00 
                        MODINVD:    DEFS    0x20
263   0164  00 00       MODINVA:    DEFS    2
264   0166  00 00       MODINVUV:   DEFS    2
265   0168  00 00 00 00 00 00 00 00 00 00 00 00 00 00 00 00 00 00 00 00 00 00 00 00 00 00 00 00 00 00 00 00 
      0188  00 00 00 00 00 00 00 00 00 00 00 00 00 00 00 00 00 00 00 00 00 00 00 00 00 00 00 00 00 00 00 00 
                        ECB:        DEFS    0x40
266   01A8              
267   01A8  00 00 00 00 00 00 00 00 00 00 00 00 00 00 00 00 00 00 00 00 00 00 00 00 00 00 00 00 00 00 00 00 
      01C8  00 00 00 00 00 00 00 00 00 00 00 00 00 00 00 00 00 00 00 00 00 00 00 00 00 00 00 00 00 00 00 00 
      01E8  00 00 00 00 00 00 00 00 00 00 00 00 00 00 00 00 00 00 00 00 00 00 00 00 
                        ALIGN       $100
268   0200              
269   0200              PUBLIC      ECX
270   0200              PUBLIC      ECY
271   0200              PUBLIC      ECV
272   0200              
273   0200  00 00 00 00 00 00 00 00 00 00 00 00 00 00 00 00 00 00 00 00 00 00 00 00 00 00 00 00 00 00 00 00 
                        ECX:        DEFS    0x20
274   0220  00 00 00 00 00 00 00 00 00 00 00 00 00 00 00 00 00 00 00 00 00 00 00 00 00 00 00 00 00 00 00 00 
                        ECY:        DEFS    0x20
275   0240  00 00 00 00 00 00 00 00 00 00 00 00 00 00 00 00 00 00 00 00 00 00 00 00 00 00 00 00 00 00 00 00 
                        ECV:        DEFS    0x20
276   0260              
277   0260  00 00 00 00 00 00 00 00 00 00 00 00 00 00 00 00 00 00 00 00 00 00 00 00 00 00 00 00 00 00 00 00 
      0280  00 00 00 00 00 00 00 00 00 00 00 00 00 00 00 00 00 00 00 00 00 00 00 00 00 00 00 00 00 00 00 00 
      02A0  00 00 00 00 00 00 00 00 00 00 00 00 00 00 00 00 00 00 00 00 00 00 00 00 00 00 00 00 00 00 00 00 
      02C0  00 00 00 00 00 00 00 00 00 00 00 00 00 00 00 00 00 00 00 00 00 00 00 00 00 00 00 00 00 00 00 00 
      02E0  00 00 00 00 00 00 00 00 00 00 00 00 00 00 00 00 00 00 00 00 00 00 00 00 00 00 00 00 00 00 00 00 
                        ALIGN       $100
278   0300              
279   0300              PUBLIC      LAM
280   0300              PUBLIC      ECW
281   0300              
282   0300  00 00 00 00 00 00 00 00 00 00 00 00 00 00 00 00 00 00 00 00 00 00 00 00 00 00 00 00 00 00 00 00 
                        LAM:        DEFS    0x20
283   0320  00 00 00 00 00 00 00 00 00 00 00 00 00 00 00 00 00 00 00 00 00 00 00 00 00 00 00 00 00 00 00 00 
                        ECW:        DEFS    0x20
284   0340              
285   0340  00 00 00 00 00 00 00 00 00 00 00 00 00 00 00 00 00 00 00 00 00 00 00 00 00 00 00 00 00 00 00 00 
      0360  00 00 00 00 00 00 00 00 00 00 00 00 00 00 00 00 00 00 00 00 00 00 00 00 00 00 00 00 00 00 00 00 
      0380  00 00 00 00 00 00 00 00 00 00 00 00 00 00 00 00 00 00 00 00 00 00 00 00 00 00 00 00 00 00 00 00 
      03A0  00 00 00 00 00 00 00 00 00 00 00 00 00 00 00 00 00 00 00 00 00 00 00 00 00 00 00 00 00 00 00 00 
      03C0  00 00 00 00 00 00 00 00 00 00 00 00 00 00 00 00 00 00 00 00 00 00 00 00 00 00 00 00 00 00 00 00 
      03E0  00 00 00 00 00 00 00 00 00 00 00 00 00 00 00 00 00 00 00 00 00 00 00 00 00 00 00 00 00 00 00 00 
                        ALIGN       $100
286   0400              
287   0400              XVALUE:
288   0400  70 A9 21 F6     DEFB    0x70, 0xA9, 0x21, 0xF6
289   0404  1F A1 8F 38     DEFB    0x1F, 0xA1, 0x8F, 0x38
290   0408  33 A8 0A 4D     DEFB    0x33, 0xA8, 0x0A, 0x4D
291   040C  91 68 2F FA     DEFB    0x91, 0x68, 0x2F, 0xFA
292   0410  51 11 22 1C     DEFB    0x51, 0x11, 0x22, 0x1C
293   0414  F8 F7 49 BB     DEFB    0xF8, 0xF7, 0x49, 0xBB
294   0418  CA 88 47 4D     DEFB    0xCA, 0x88, 0x47, 0x4D
295   041C  EE B4 75 90     DEFB    0xEE, 0xB4, 0x75, 0x90
296   0420              
297   0420              YVALUE:
298   0420  A6 A6 67 97     DEFB    0xA6, 0xA6, 0x67, 0x97
299   0424  EC AE BE 0F     DEFB    0xEC, 0xAE, 0xBE, 0x0F
300   0428  34 3D DC 53     DEFB    0x34, 0x3D, 0xDC, 0x53
301   042C  23 60 55 C1     DEFB    0x23, 0x60, 0x55, 0xC1
302   0430  6A A4 F0 C5     DEFB    0x6A, 0xA4, 0xF0, 0xC5
303   0434  11 90 E7 4D     DEFB    0x11, 0x90, 0xE7, 0x4D
304   0438  31 4D D7 4E     DEFB    0x31, 0x4D, 0xD7, 0x4E
305   043C  06 1A E3 B7     DEFB    0x06, 0x1A, 0xE3, 0xB7
306   0440              
307   0440              ZVALUE:
308   0440  A0 67 54 4C     DEFB    0xA0, 0x67, 0x54, 0x4C
309   0444  66 06 DA A9     DEFB    0x66, 0x06, 0xDA, 0xA9
310   0448  72 CA 85 CD     DEFB    0x72, 0xCA, 0x85, 0xCD
311   044C  D0 C7 7D 23     DEFB    0xD0, 0xC7, 0x7D, 0x23
312   0450  6E 8C A2 DD     DEFB    0x6E, 0x8C, 0xA2, 0xDD
313   0454  AC AC A7 45     DEFB    0xAC, 0xAC, 0xA7, 0x45
314   0458  41 81 C7 CC     DEFB    0x41, 0x81, 0xC7, 0xCC
315   045C  90 0A 6E E5     DEFB    0x90, 0x0A, 0x6E, 0xE5
316   0460              
317   0460              EXPECT:
318   0460  01 00 00 00     DEFB    0x01, 0x00, 0x00, 0x00
319   0464  00 00 00 00     DEFB    0x00, 0x00, 0x00, 0x00
320   0468  00 00 00 00     DEFB    0x00, 0x00, 0x00, 0x00
321   046C  00 00 00 00     DEFB    0x00, 0x00, 0x00, 0x00
322   0470  00 00 00 00     DEFB    0x00, 0x00, 0x00, 0x00
323   0474  00 00 00 00     DEFB    0x00, 0x00, 0x00, 0x00
324   0478  00 00 00 00     DEFB    0x00, 0x00, 0x00, 0x00
325   047C  00 00 00 00     DEFB    0x00, 0x00, 0x00, 0x00
326   0480              
327   0480              ECG2X:
328   0480  E5 9E 70 5C     DEFB    0xE5, 0x9E, 0x70, 0x5C
329   0484  B9 09 AC AB     DEFB    0xB9, 0x09, 0xAC, 0xAB
330   0488  A7 3C EF 8C     DEFB    0xA7, 0x3C, 0xEF, 0x8C
331   048C  4B 8E 77 5C     DEFB    0x4B, 0x8E, 0x77, 0x5C
332   0490  D8 7C C0 95     DEFB    0xD8, 0x7C, 0xC0, 0x95
333   0494  6E 40 45 30     DEFB    0x6E, 0x40, 0x45, 0x30
334   0498  6D 7D ED 41     DEFB    0x6D, 0x7D, 0xED, 0x41
335   049C  94 7F 04 C6     DEFB    0x94, 0x7F, 0x04, 0xC6
336   04A0              ECG2Y:
337   04A0  2A E5 CF 50     DEFB    0x2A, 0xE5, 0xCF, 0x50
338   04A4  A9 31 64 23     DEFB    0xA9, 0x31, 0x64, 0x23
339   04A8  E1 D0 66 32     DEFB    0xE1, 0xD0, 0x66, 0x32
340   04AC  65 32 F6 F7     DEFB    0x65, 0x32, 0xF6, 0xF7
341   04B0  EE EA 6C 46     DEFB    0xEE, 0xEA, 0x6C, 0x46
342   04B4  19 84 C5 A3     DEFB    0x19, 0x84, 0xC5, 0xA3
343   04B8  39 C3 3D A6     DEFB    0x39, 0xC3, 0x3D, 0xA6
344   04BC  FE 68 E1 1A     DEFB    0xFE, 0x68, 0xE1, 0x1A
345   04C0              
346   04C0              ECG3X:
347   04C0  F9 36 E0 BC     DEFB    0xF9, 0x36, 0xE0, 0xBC
348   04C4  13 F1 01 86     DEFB    0x13, 0xF1, 0x01, 0x86
349   04C8  B0 99 6F 83     DEFB    0xB0, 0x99, 0x6F, 0x83
350   04CC  45 C8 31 B5     DEFB    0x45, 0xC8, 0x31, 0xB5
351   04D0  29 52 9D F8     DEFB    0x29, 0x52, 0x9D, 0xF8
352   04D4  85 4F 34 49     DEFB    0x85, 0x4F, 0x34, 0x49
353   04D8  10 C3 58 92     DEFB    0x10, 0xC3, 0x58, 0x92
354   04DC  01 8A 30 F9     DEFB    0x01, 0x8A, 0x30, 0xF9
355   04E0              ECG3Y:
356   04E0  72 E6 B8 84     DEFB    0x72, 0xE6, 0xB8, 0x84
357   04E4  75 FD B9 6C     DEFB    0x75, 0xFD, 0xB9, 0x6C
358   04E8  1B 23 C2 34     DEFB    0x1B, 0x23, 0xC2, 0x34
359   04EC  99 A9 00 65     DEFB    0x99, 0xA9, 0x00, 0x65
360   04F0  56 F3 37 2A     DEFB    0x56, 0xF3, 0x37, 0x2A
361   04F4  E6 37 E3 0F     DEFB    0xE6, 0x37, 0xE3, 0x0F
362   04F8  14 E8 2D 63     DEFB    0x14, 0xE8, 0x2D, 0x63
363   04FC  0F 7B 8F 38     DEFB    0x0F, 0x7B, 0x8F, 0x38
364   0500              
365   0500              ; Order of (Gx,-Gy)
366   0500              PRIVK:
367   0500  40 41 36 D0     DEFB    0x40, 0x41, 0x36, 0xD0
368   0504  8C 5E D2 BF     DEFB    0x8C, 0x5E, 0xD2, 0xBF
369   0508  3B A0 48 AF     DEFB    0x3B, 0xA0, 0x48, 0xAF
370   050C  E6 DC AE BA     DEFB    0xE6, 0xDC, 0xAE, 0xBA
371   0510  FE FF FF FF     DEFB    0xFE, 0xFF, 0xFF, 0xFF
372   0514  FF FF FF FF     DEFB    0xFF, 0xFF, 0xFF, 0xFF
373   0518  FF FF FF FF     DEFB    0xFF, 0xFF, 0xFF, 0xFF
374   051C  FF FF FF FF     DEFB    0xFF, 0xFF, 0xFF, 0xFF
375   0520              
376   0520              
